; Function Attrs: nounwind uwtable
define noalias noundef nonnull ptr @l_Std_Time_PlainDateTime_ofTimestampAssumingUTC___lambda__5___boxed(ptr noundef %0, ptr noundef %1, ptr noundef %2, ptr noundef %3, ptr noundef %4, ptr noundef %5, ptr noundef %6, ptr noundef %7, ptr noundef %8, ptr noundef %9, ptr noundef %10, ptr noundef %11, ptr noundef %12) local_unnamed_addr #1 {
  %14 = tail call ptr @l_Std_Time_PlainDateTime_ofTimestampAssumingUTC___lambda__5(ptr noundef %0, ptr noundef %1, ptr noundef %2, ptr noundef %3, ptr noundef %4, ptr noundef %5, ptr noundef %6, ptr noundef %7, ptr noundef %8, ptr noundef %9, ptr noundef %10, ptr noundef %11, ptr poison)
  %15 = ptrtoint ptr %12 to i64
  %16 = and i64 %15, 1
  %.not = icmp eq i64 %16, 0
  br i1 %.not, label %17, label %lean_dec.exit36

17:                                               ; preds = %13
  %18 = load i32, ptr %12, align 4, !tbaa !9
  %19 = icmp sgt i32 %18, 1
  br i1 %19, label %20, label %22, !prof !12

20:                                               ; preds = %17
  %21 = add nsw i32 %18, -1
  store i32 %21, ptr %12, align 4, !tbaa !9
  br label %lean_dec.exit36

22:                                               ; preds = %17
  %.not.i = icmp eq i32 %18, 0
  br i1 %.not.i, label %lean_dec.exit36, label %23

23:                                               ; preds = %22
  tail call void @lean_dec_ref_cold(ptr noundef nonnull %12) #5
  br label %lean_dec.exit36

lean_dec.exit36:                                  ; preds = %23, %22, %20, %13
  %24 = ptrtoint ptr %11 to i64
  %25 = and i64 %24, 1
  %.not59 = icmp eq i64 %25, 0
  br i1 %.not59, label %26, label %lean_dec.exit35

26:                                               ; preds = %lean_dec.exit36
  %27 = load i32, ptr %11, align 4, !tbaa !9
  %28 = icmp sgt i32 %27, 1
  br i1 %28, label %29, label %31, !prof !12

29:                                               ; preds = %26
  %30 = add nsw i32 %27, -1
  store i32 %30, ptr %11, align 4, !tbaa !9
  br label %lean_dec.exit35

31:                                               ; preds = %26
  %.not.i37 = icmp eq i32 %27, 0
  br i1 %.not.i37, label %lean_dec.exit35, label %32

32:                                               ; preds = %31
  tail call void @lean_dec_ref_cold(ptr noundef nonnull %11) #5
  br label %lean_dec.exit35

lean_dec.exit35:                                  ; preds = %32, %31, %29, %lean_dec.exit36
  %33 = ptrtoint ptr %10 to i64
  %34 = and i64 %33, 1
  %.not60 = icmp eq i64 %34, 0
  br i1 %.not60, label %35, label %lean_dec.exit34

35:                                               ; preds = %lean_dec.exit35
  %36 = load i32, ptr %10, align 4, !tbaa !9
  %37 = icmp sgt i32 %36, 1
  br i1 %37, label %38, label %40, !prof !12

38:                                               ; preds = %35
  %39 = add nsw i32 %36, -1
  store i32 %39, ptr %10, align 4, !tbaa !9
  br label %lean_dec.exit34

40:                                               ; preds = %35
  %.not.i39 = icmp eq i32 %36, 0
  br i1 %.not.i39, label %lean_dec.exit34, label %41

41:                                               ; preds = %40
  tail call void @lean_dec_ref_cold(ptr noundef nonnull %10) #5
  br label %lean_dec.exit34

lean_dec.exit34:                                  ; preds = %41, %40, %38, %lean_dec.exit35
  %42 = ptrtoint ptr %8 to i64
  %43 = and i64 %42, 1
  %.not61 = icmp eq i64 %43, 0
  br i1 %.not61, label %44, label %lean_dec.exit33

44:                                               ; preds = %lean_dec.exit34
  %45 = load i32, ptr %8, align 4, !tbaa !9
  %46 = icmp sgt i32 %45, 1
  br i1 %46, label %47, label %49, !prof !12

47:                                               ; preds = %44
  %48 = add nsw i32 %45, -1
  store i32 %48, ptr %8, align 4, !tbaa !9
  br label %lean_dec.exit33

49:                                               ; preds = %44
  %.not.i41 = icmp eq i32 %45, 0
  br i1 %.not.i41, label %lean_dec.exit33, label %50

50:                                               ; preds = %49
  tail call void @lean_dec_ref_cold(ptr noundef nonnull %8) #5
  br label %lean_dec.exit33

lean_dec.exit33:                                  ; preds = %50, %49, %47, %lean_dec.exit34
  %51 = ptrtoint ptr %7 to i64
  %52 = and i64 %51, 1
  %.not62 = icmp eq i64 %52, 0
  br i1 %.not62, label %53, label %lean_dec.exit32

53:                                               ; preds = %lean_dec.exit33
  %54 = load i32, ptr %7, align 4, !tbaa !9
  %55 = icmp sgt i32 %54, 1
  br i1 %55, label %56, label %58, !prof !12

56:                                               ; preds = %53
  %57 = add nsw i32 %54, -1
  store i32 %57, ptr %7, align 4, !tbaa !9
  br label %lean_dec.exit32

58:                                               ; preds = %53
  %.not.i43 = icmp eq i32 %54, 0
  br i1 %.not.i43, label %lean_dec.exit32, label %59

59:                                               ; preds = %58
  tail call void @lean_dec_ref_cold(ptr noundef nonnull %7) #5
  br label %lean_dec.exit32

lean_dec.exit32:                                  ; preds = %59, %58, %56, %lean_dec.exit33
  %60 = ptrtoint ptr %6 to i64
  %61 = and i64 %60, 1
  %.not63 = icmp eq i64 %61, 0
  br i1 %.not63, label %62, label %lean_dec.exit31

62:                                               ; preds = %lean_dec.exit32
  %63 = load i32, ptr %6, align 4, !tbaa !9
  %64 = icmp sgt i32 %63, 1
  br i1 %64, label %65, label %67, !prof !12

65:                                               ; preds = %62
  %66 = add nsw i32 %63, -1
  store i32 %66, ptr %6, align 4, !tbaa !9
  br label %lean_dec.exit31

67:                                               ; preds = %62
  %.not.i45 = icmp eq i32 %63, 0
  br i1 %.not.i45, label %lean_dec.exit31, label %68

68:                                               ; preds = %67
  tail call void @lean_dec_ref_cold(ptr noundef nonnull %6) #5
  br label %lean_dec.exit31

lean_dec.exit31:                                  ; preds = %68, %67, %65, %lean_dec.exit32
  %69 = ptrtoint ptr %5 to i64
  %70 = and i64 %69, 1
  %.not64 = icmp eq i64 %70, 0
  br i1 %.not64, label %71, label %lean_dec.exit30

71:                                               ; preds = %lean_dec.exit31
  %72 = load i32, ptr %5, align 4, !tbaa !9
  %73 = icmp sgt i32 %72, 1
  br i1 %73, label %74, label %76, !prof !12

74:                                               ; preds = %71
  %75 = add nsw i32 %72, -1
  store i32 %75, ptr %5, align 4, !tbaa !9
  br label %lean_dec.exit30

76:                                               ; preds = %71
  %.not.i47 = icmp eq i32 %72, 0
  br i1 %.not.i47, label %lean_dec.exit30, label %77

77:                                               ; preds = %76
  tail call void @lean_dec_ref_cold(ptr noundef nonnull %5) #5
  br label %lean_dec.exit30

lean_dec.exit30:                                  ; preds = %77, %76, %74, %lean_dec.exit31
  %78 = ptrtoint ptr %4 to i64
  %79 = and i64 %78, 1
  %.not65 = icmp eq i64 %79, 0
  br i1 %.not65, label %80, label %lean_dec.exit29

80:                                               ; preds = %lean_dec.exit30
  %81 = load i32, ptr %4, align 4, !tbaa !9
  %82 = icmp sgt i32 %81, 1
  br i1 %82, label %83, label %85, !prof !12

83:                                               ; preds = %80
  %84 = add nsw i32 %81, -1
  store i32 %84, ptr %4, align 4, !tbaa !9
  br label %lean_dec.exit29

85:                                               ; preds = %80
  %.not.i49 = icmp eq i32 %81, 0
  br i1 %.not.i49, label %lean_dec.exit29, label %86

86:                                               ; preds = %85
  tail call void @lean_dec_ref_cold(ptr noundef nonnull %4) #5
  br label %lean_dec.exit29

lean_dec.exit29:                                  ; preds = %86, %85, %83, %lean_dec.exit30
  %87 = ptrtoint ptr %3 to i64
  %88 = and i64 %87, 1
  %.not66 = icmp eq i64 %88, 0
  br i1 %.not66, label %89, label %lean_dec.exit28

89:                                               ; preds = %lean_dec.exit29
  %90 = load i32, ptr %3, align 4, !tbaa !9
  %91 = icmp sgt i32 %90, 1
  br i1 %91, label %92, label %94, !prof !12

92:                                               ; preds = %89
  %93 = add nsw i32 %90, -1
  store i32 %93, ptr %3, align 4, !tbaa !9
  br label %lean_dec.exit28

94:                                               ; preds = %89
  %.not.i51 = icmp eq i32 %90, 0
  br i1 %.not.i51, label %lean_dec.exit28, label %95

95:                                               ; preds = %94
  tail call void @lean_dec_ref_cold(ptr noundef nonnull %3) #5
  br label %lean_dec.exit28

lean_dec.exit28:                                  ; preds = %95, %94, %92, %lean_dec.exit29
  %96 = ptrtoint ptr %2 to i64
  %97 = and i64 %96, 1
  %.not67 = icmp eq i64 %97, 0
  br i1 %.not67, label %98, label %lean_dec.exit27

98:                                               ; preds = %lean_dec.exit28
  %99 = load i32, ptr %2, align 4, !tbaa !9
  %100 = icmp sgt i32 %99, 1
  br i1 %100, label %101, label %103, !prof !12

101:                                              ; preds = %98
  %102 = add nsw i32 %99, -1
  store i32 %102, ptr %2, align 4, !tbaa !9
  br label %lean_dec.exit27

103:                                              ; preds = %98
  %.not.i53 = icmp eq i32 %99, 0
  br i1 %.not.i53, label %lean_dec.exit27, label %104

104:                                              ; preds = %103
  tail call void @lean_dec_ref_cold(ptr noundef nonnull %2) #5
  br label %lean_dec.exit27

lean_dec.exit27:                                  ; preds = %104, %103, %101, %lean_dec.exit28
  %105 = ptrtoint ptr %1 to i64
  %106 = and i64 %105, 1
  %.not68 = icmp eq i64 %106, 0
  br i1 %.not68, label %107, label %lean_dec.exit26

107:                                              ; preds = %lean_dec.exit27
  %108 = load i32, ptr %1, align 4, !tbaa !9
  %109 = icmp sgt i32 %108, 1
  br i1 %109, label %110, label %112, !prof !12

110:                                              ; preds = %107
  %111 = add nsw i32 %108, -1
  store i32 %111, ptr %1, align 4, !tbaa !9
  br label %lean_dec.exit26

112:                                              ; preds = %107
  %.not.i55 = icmp eq i32 %108, 0
  br i1 %.not.i55, label %lean_dec.exit26, label %113

113:                                              ; preds = %112
  tail call void @lean_dec_ref_cold(ptr noundef nonnull %1) #5
  br label %lean_dec.exit26

lean_dec.exit26:                                  ; preds = %113, %112, %110, %lean_dec.exit27
  %114 = ptrtoint ptr %0 to i64
  %115 = and i64 %114, 1
  %.not69 = icmp eq i64 %115, 0
  br i1 %.not69, label %116, label %lean_dec.exit

116:                                              ; preds = %lean_dec.exit26
  %117 = load i32, ptr %0, align 4, !tbaa !9
  %118 = icmp sgt i32 %117, 1
  br i1 %118, label %119, label %121, !prof !12

119:                                              ; preds = %116
  %120 = add nsw i32 %117, -1
  store i32 %120, ptr %0, align 4, !tbaa !9
  br label %lean_dec.exit

121:                                              ; preds = %116
  %.not.i57 = icmp eq i32 %117, 0
  br i1 %.not.i57, label %lean_dec.exit, label %122

122:                                              ; preds = %121
  tail call void @lean_dec_ref_cold(ptr noundef nonnull %0) #5
  br label %lean_dec.exit

lean_dec.exit:                                    ; preds = %122, %121, %119, %lean_dec.exit26
  ret ptr %14
}